; Function Attrs: mustprogress uwtable
define dso_local noundef nonnull align 8 dereferenceable(32) ptr @_ZNK29cmCompiledGeneratorExpression8EvaluateEP16cmLocalGeneratorRKNSt7__cxx1112basic_stringIcSt11char_traitsIcESaIcEEEPK17cmGeneratorTargetP31cmGeneratorExpressionDAGCheckerSC_S9_(ptr noundef nonnull align 8 dereferenceable(360) %0, ptr noundef %1, ptr noundef nonnull align 8 dereferenceable(32) %2, ptr noundef %3, ptr noundef %4, ptr noundef %5, ptr noundef nonnull align 8 dereferenceable(32) %6) local_unnamed_addr #5 align 2 personality ptr @__gxx_personality_v0 {
  %8 = alloca %struct.cmGeneratorExpressionContext, align 8
  %9 = alloca %"class.std::__cxx11::basic_string", align 8
  %10 = alloca %class.cmListFileBacktrace, align 8
  %11 = alloca %"class.std::__cxx11::basic_string", align 8
  call void @_ZNSt7__cxx1112basic_stringIcSt11char_traitsIcESaIcEEC1ERKS4_(ptr noundef nonnull align 8 dereferenceable(32) %9, ptr noundef nonnull align 8 dereferenceable(32) %2)
  %12 = getelementptr inbounds nuw i8, ptr %0, i64 74
  %13 = load i8, ptr %12, align 2
  %14 = getelementptr inbounds nuw i8, ptr %0, i64 73
  %15 = load i8, ptr %14, align 1
  %16 = load ptr, ptr %0, align 8
  store ptr %16, ptr %10, align 8
  %17 = getelementptr inbounds nuw i8, ptr %10, i64 8
  %18 = getelementptr inbounds nuw i8, ptr %0, i64 8
  %19 = load ptr, ptr %18, align 8
  store ptr %19, ptr %17, align 8
  %.not.i.i.i.i.i = icmp eq ptr %19, null
  br i1 %.not.i.i.i.i.i, label %_ZN19cmListFileBacktraceC2ERKS_.exit, label %20

20:                                               ; preds = %7
  %21 = getelementptr inbounds nuw i8, ptr %19, i64 8
  %22 = load i8, ptr @__libc_single_threaded, align 1
  %.not.i.i.i.i.i.i = icmp eq i8 %22, 0
  br i1 %.not.i.i.i.i.i.i, label %26, label %23

23:                                               ; preds = %20
  %24 = load i32, ptr %21, align 4
  %25 = add nsw i32 %24, 1
  store i32 %25, ptr %21, align 4
  br label %_ZN19cmListFileBacktraceC2ERKS_.exit

26:                                               ; preds = %20
  %27 = atomicrmw volatile add ptr %21, i32 1 acq_rel, align 4
  br label %_ZN19cmListFileBacktraceC2ERKS_.exit

_ZN19cmListFileBacktraceC2ERKS_.exit:             ; preds = %7, %23, %26
  invoke void @_ZNSt7__cxx1112basic_stringIcSt11char_traitsIcESaIcEEC1ERKS4_(ptr noundef nonnull align 8 dereferenceable(32) %11, ptr noundef nonnull align 8 dereferenceable(32) %6)
          to label %28 unwind label %70

28:                                               ; preds = %_ZN19cmListFileBacktraceC2ERKS_.exit
  %29 = trunc i8 %15 to i1
  %.not = icmp eq ptr %5, null
  %30 = select i1 %.not, ptr %3, ptr %5
  %31 = trunc i8 %13 to i1
  invoke void @_ZN28cmGeneratorExpressionContextC1EP16cmLocalGeneratorNSt7__cxx1112basic_stringIcSt11char_traitsIcESaIcEEEbPK17cmGeneratorTargetSA_b19cmListFileBacktraceS7_(ptr noundef nonnull align 8 dereferenceable(350) %8, ptr noundef %1, ptr noundef nonnull %9, i1 noundef zeroext %31, ptr noundef %3, ptr noundef %30, i1 noundef zeroext %29, ptr noundef nonnull %10, ptr noundef nonnull %11)
          to label %32 unwind label %72

32:                                               ; preds = %28
  call void @_ZNSt7__cxx1112basic_stringIcSt11char_traitsIcESaIcEED1Ev(ptr noundef nonnull align 8 dereferenceable(32) %11) #20
  %33 = load ptr, ptr %17, align 8
  %.not.i.i.i.i.i15 = icmp eq ptr %33, null
  br i1 %.not.i.i.i.i.i15, label %_ZN19cmListFileBacktraceD2Ev.exit, label %34

34:                                               ; preds = %32
  %35 = getelementptr inbounds nuw i8, ptr %33, i64 8
  %36 = load atomic i64, ptr %35 acquire, align 8
  %37 = icmp eq i64 %36, 4294967297
  %38 = trunc i64 %36 to i32
  br i1 %37, label %39, label %44

39:                                               ; preds = %34
  store i32 0, ptr %35, align 8
  %40 = getelementptr inbounds nuw i8, ptr %33, i64 12
  store i32 0, ptr %40, align 4
  %41 = load ptr, ptr %33, align 8
  %42 = getelementptr inbounds nuw i8, ptr %41, i64 16
  %43 = load ptr, ptr %42, align 8
  call void %43(ptr noundef nonnull align 8 dereferenceable(16) %33) #20
  br label %_ZNSt16_Sp_counted_baseILN9__gnu_cxx12_Lock_policyE2EE24_M_release_last_use_coldEv.exit.sink.split.i.i.i.i.i.i

44:                                               ; preds = %34
  %45 = load i8, ptr @__libc_single_threaded, align 1
  %.not.i.i.i.i.i.i16 = icmp eq i8 %45, 0
  br i1 %.not.i.i.i.i.i.i16, label %48, label %46

46:                                               ; preds = %44
  %47 = add nsw i32 %38, -1
  store i32 %47, ptr %35, align 4
  br label %50

48:                                               ; preds = %44
  %49 = atomicrmw volatile add ptr %35, i32 -1 acq_rel, align 4
  br label %50

50:                                               ; preds = %48, %46
  %.0.i.i.i.i.i.i = phi i32 [ %38, %46 ], [ %49, %48 ]
  %51 = icmp eq i32 %.0.i.i.i.i.i.i, 1
  br i1 %51, label %52, label %_ZN19cmListFileBacktraceD2Ev.exit

52:                                               ; preds = %50
  %53 = load ptr, ptr %33, align 8
  %54 = getelementptr inbounds nuw i8, ptr %53, i64 16
  %55 = load ptr, ptr %54, align 8
  call void %55(ptr noundef nonnull align 8 dereferenceable(16) %33) #20
  %56 = getelementptr inbounds nuw i8, ptr %33, i64 12
  %57 = load i8, ptr @__libc_single_threaded, align 1
  %.not.i.i.i.i.i.i.i.i = icmp eq i8 %57, 0
  br i1 %.not.i.i.i.i.i.i.i.i, label %61, label %58

58:                                               ; preds = %52
  %59 = load i32, ptr %56, align 4
  %60 = add nsw i32 %59, -1
  store i32 %60, ptr %56, align 4
  br label %63

61:                                               ; preds = %52
  %62 = atomicrmw volatile add ptr %56, i32 -1 acq_rel, align 4
  br label %63

63:                                               ; preds = %61, %58
  %.0.i.i.i.i.i.i.i.i = phi i32 [ %59, %58 ], [ %62, %61 ]
  %64 = icmp eq i32 %.0.i.i.i.i.i.i.i.i, 1
  br i1 %64, label %_ZNSt16_Sp_counted_baseILN9__gnu_cxx12_Lock_policyE2EE24_M_release_last_use_coldEv.exit.sink.split.i.i.i.i.i.i, label %_ZN19cmListFileBacktraceD2Ev.exit

_ZNSt16_Sp_counted_baseILN9__gnu_cxx12_Lock_policyE2EE24_M_release_last_use_coldEv.exit.sink.split.i.i.i.i.i.i: ; preds = %63, %39
  %65 = load ptr, ptr %33, align 8
  %66 = getelementptr inbounds nuw i8, ptr %65, i64 24
  %67 = load ptr, ptr %66, align 8
  call void %67(ptr noundef nonnull align 8 dereferenceable(16) %33) #20
  br label %_ZN19cmListFileBacktraceD2Ev.exit

_ZN19cmListFileBacktraceD2Ev.exit:                ; preds = %32, %50, %63, %_ZNSt16_Sp_counted_baseILN9__gnu_cxx12_Lock_policyE2EE24_M_release_last_use_coldEv.exit.sink.split.i.i.i.i.i.i
  call void @_ZNSt7__cxx1112basic_stringIcSt11char_traitsIcESaIcEED1Ev(ptr noundef nonnull align 8 dereferenceable(32) %9) #20
  %68 = invoke noundef nonnull align 8 dereferenceable(32) ptr @_ZNK29cmCompiledGeneratorExpression19EvaluateWithContextB5cxx11ER28cmGeneratorExpressionContextP31cmGeneratorExpressionDAGChecker(ptr noundef nonnull align 8 dereferenceable(360) %0, ptr noundef nonnull align 8 dereferenceable(350) %8, ptr noundef %4)
          to label %69 unwind label %75

69:                                               ; preds = %_ZN19cmListFileBacktraceD2Ev.exit
  call void @_ZN28cmGeneratorExpressionContextD2Ev(ptr noundef nonnull align 8 dereferenceable(350) %8) #20
  ret ptr %68

70:                                               ; preds = %_ZN19cmListFileBacktraceC2ERKS_.exit
  %71 = landingpad { ptr, i32 }
          cleanup
  br label %74

72:                                               ; preds = %28
  %73 = landingpad { ptr, i32 }
          cleanup
  call void @_ZNSt7__cxx1112basic_stringIcSt11char_traitsIcESaIcEED1Ev(ptr noundef nonnull align 8 dereferenceable(32) %11) #20
  br label %74

74:                                               ; preds = %72, %70
  %.pn = phi { ptr, i32 } [ %73, %72 ], [ %71, %70 ]
  call void @_ZN19cmListFileBacktraceD2Ev(ptr noundef nonnull align 8 dereferenceable(16) %10) #20
  call void @_ZNSt7__cxx1112basic_stringIcSt11char_traitsIcESaIcEED1Ev(ptr noundef nonnull align 8 dereferenceable(32) %9) #20
  br label %77

75:                                               ; preds = %_ZN19cmListFileBacktraceD2Ev.exit
  %76 = landingpad { ptr, i32 }
          cleanup
  call void @_ZN28cmGeneratorExpressionContextD2Ev(ptr noundef nonnull align 8 dereferenceable(350) %8) #20
  br label %77

77:                                               ; preds = %75, %74
  %.pn13 = phi { ptr, i32 } [ %76, %75 ], [ %.pn, %74 ]
  resume { ptr, i32 } %.pn13
}